; Function Attrs: mustprogress nofree norecurse nosync nounwind willreturn memory(argmem: write) uwtable
define noundef i32 @SHA224_Init(ptr noundef writeonly captures(none) initializes((0, 112)) %0) local_unnamed_addr #0 {
  %2 = getelementptr inbounds nuw i8, ptr %0, i64 32
  tail call void @llvm.memset.p0.i64(ptr noundef nonnull align 4 dereferenceable(112) %2, i8 0, i64 76, i1 false)
  store i32 -1056596264, ptr %0, align 4, !tbaa !3
  %3 = getelementptr inbounds nuw i8, ptr %0, i64 4
  store i32 914150663, ptr %3, align 4, !tbaa !3
  %4 = getelementptr inbounds nuw i8, ptr %0, i64 8
  store i32 812702999, ptr %4, align 4, !tbaa !3
  %5 = getelementptr inbounds nuw i8, ptr %0, i64 12
  store i32 -150054599, ptr %5, align 4, !tbaa !3
  %6 = getelementptr inbounds nuw i8, ptr %0, i64 16
  store i32 -4191439, ptr %6, align 4, !tbaa !3
  %7 = getelementptr inbounds nuw i8, ptr %0, i64 20
  store i32 1750603025, ptr %7, align 4, !tbaa !3
  %8 = getelementptr inbounds nuw i8, ptr %0, i64 24
  store i32 1694076839, ptr %8, align 4, !tbaa !3
  %9 = getelementptr inbounds nuw i8, ptr %0, i64 28
  store i32 -1090891868, ptr %9, align 4, !tbaa !3
  %10 = getelementptr inbounds nuw i8, ptr %0, i64 108
  store i32 28, ptr %10, align 4, !tbaa !7
  ret i32 1
}